opt subtitle "Microchip Technology Omniscient Code Generator v1.45 (Free mode) build 201711160504"

opt pagewidth 120

	opt lm

	processor	16F887
opt include "C:\Program Files (x86)\Microchip\xc8\v1.45\include\16f887.cgen.inc"
clrc	macro
	bcf	3,0
	endm
clrz	macro
	bcf	3,2
	endm
setc	macro
	bsf	3,0
	endm
setz	macro
	bsf	3,2
	endm
skipc	macro
	btfss	3,0
	endm
skipz	macro
	btfss	3,2
	endm
skipnc	macro
	btfsc	3,0
	endm
skipnz	macro
	btfsc	3,2
	endm
# 52 "C:\Program Files (x86)\Microchip\xc8\v1.45\include\pic16f887.h"
INDF equ 00h ;# 
# 59 "C:\Program Files (x86)\Microchip\xc8\v1.45\include\pic16f887.h"
TMR0 equ 01h ;# 
# 66 "C:\Program Files (x86)\Microchip\xc8\v1.45\include\pic16f887.h"
PCL equ 02h ;# 
# 73 "C:\Program Files (x86)\Microchip\xc8\v1.45\include\pic16f887.h"
STATUS equ 03h ;# 
# 159 "C:\Program Files (x86)\Microchip\xc8\v1.45\include\pic16f887.h"
FSR equ 04h ;# 
# 166 "C:\Program Files (x86)\Microchip\xc8\v1.45\include\pic16f887.h"
PORTA equ 05h ;# 
# 228 "C:\Program Files (x86)\Microchip\xc8\v1.45\include\pic16f887.h"
PORTB equ 06h ;# 
# 290 "C:\Program Files (x86)\Microchip\xc8\v1.45\include\pic16f887.h"
PORTC equ 07h ;# 
# 352 "C:\Program Files (x86)\Microchip\xc8\v1.45\include\pic16f887.h"
PORTD equ 08h ;# 
# 414 "C:\Program Files (x86)\Microchip\xc8\v1.45\include\pic16f887.h"
PORTE equ 09h ;# 
# 452 "C:\Program Files (x86)\Microchip\xc8\v1.45\include\pic16f887.h"
PCLATH equ 0Ah ;# 
# 459 "C:\Program Files (x86)\Microchip\xc8\v1.45\include\pic16f887.h"
INTCON equ 0Bh ;# 
# 537 "C:\Program Files (x86)\Microchip\xc8\v1.45\include\pic16f887.h"
PIR1 equ 0Ch ;# 
# 593 "C:\Program Files (x86)\Microchip\xc8\v1.45\include\pic16f887.h"
PIR2 equ 0Dh ;# 
# 650 "C:\Program Files (x86)\Microchip\xc8\v1.45\include\pic16f887.h"
TMR1 equ 0Eh ;# 
# 657 "C:\Program Files (x86)\Microchip\xc8\v1.45\include\pic16f887.h"
TMR1L equ 0Eh ;# 
# 664 "C:\Program Files (x86)\Microchip\xc8\v1.45\include\pic16f887.h"
TMR1H equ 0Fh ;# 
# 671 "C:\Program Files (x86)\Microchip\xc8\v1.45\include\pic16f887.h"
T1CON equ 010h ;# 
# 765 "C:\Program Files (x86)\Microchip\xc8\v1.45\include\pic16f887.h"
TMR2 equ 011h ;# 
# 772 "C:\Program Files (x86)\Microchip\xc8\v1.45\include\pic16f887.h"
T2CON equ 012h ;# 
# 843 "C:\Program Files (x86)\Microchip\xc8\v1.45\include\pic16f887.h"
SSPBUF equ 013h ;# 
# 850 "C:\Program Files (x86)\Microchip\xc8\v1.45\include\pic16f887.h"
SSPCON equ 014h ;# 
# 920 "C:\Program Files (x86)\Microchip\xc8\v1.45\include\pic16f887.h"
CCPR1 equ 015h ;# 
# 927 "C:\Program Files (x86)\Microchip\xc8\v1.45\include\pic16f887.h"
CCPR1L equ 015h ;# 
# 934 "C:\Program Files (x86)\Microchip\xc8\v1.45\include\pic16f887.h"
CCPR1H equ 016h ;# 
# 941 "C:\Program Files (x86)\Microchip\xc8\v1.45\include\pic16f887.h"
CCP1CON equ 017h ;# 
# 1038 "C:\Program Files (x86)\Microchip\xc8\v1.45\include\pic16f887.h"
RCSTA equ 018h ;# 
# 1133 "C:\Program Files (x86)\Microchip\xc8\v1.45\include\pic16f887.h"
TXREG equ 019h ;# 
# 1140 "C:\Program Files (x86)\Microchip\xc8\v1.45\include\pic16f887.h"
RCREG equ 01Ah ;# 
# 1147 "C:\Program Files (x86)\Microchip\xc8\v1.45\include\pic16f887.h"
CCPR2 equ 01Bh ;# 
# 1154 "C:\Program Files (x86)\Microchip\xc8\v1.45\include\pic16f887.h"
CCPR2L equ 01Bh ;# 
# 1161 "C:\Program Files (x86)\Microchip\xc8\v1.45\include\pic16f887.h"
CCPR2H equ 01Ch ;# 
# 1168 "C:\Program Files (x86)\Microchip\xc8\v1.45\include\pic16f887.h"
CCP2CON equ 01Dh ;# 
# 1238 "C:\Program Files (x86)\Microchip\xc8\v1.45\include\pic16f887.h"
ADRESH equ 01Eh ;# 
# 1245 "C:\Program Files (x86)\Microchip\xc8\v1.45\include\pic16f887.h"
ADCON0 equ 01Fh ;# 
# 1346 "C:\Program Files (x86)\Microchip\xc8\v1.45\include\pic16f887.h"
OPTION_REG equ 081h ;# 
# 1416 "C:\Program Files (x86)\Microchip\xc8\v1.45\include\pic16f887.h"
TRISA equ 085h ;# 
# 1478 "C:\Program Files (x86)\Microchip\xc8\v1.45\include\pic16f887.h"
TRISB equ 086h ;# 
# 1540 "C:\Program Files (x86)\Microchip\xc8\v1.45\include\pic16f887.h"
TRISC equ 087h ;# 
# 1602 "C:\Program Files (x86)\Microchip\xc8\v1.45\include\pic16f887.h"
TRISD equ 088h ;# 
# 1664 "C:\Program Files (x86)\Microchip\xc8\v1.45\include\pic16f887.h"
TRISE equ 089h ;# 
# 1702 "C:\Program Files (x86)\Microchip\xc8\v1.45\include\pic16f887.h"
PIE1 equ 08Ch ;# 
# 1758 "C:\Program Files (x86)\Microchip\xc8\v1.45\include\pic16f887.h"
PIE2 equ 08Dh ;# 
# 1815 "C:\Program Files (x86)\Microchip\xc8\v1.45\include\pic16f887.h"
PCON equ 08Eh ;# 
# 1862 "C:\Program Files (x86)\Microchip\xc8\v1.45\include\pic16f887.h"
OSCCON equ 08Fh ;# 
# 1927 "C:\Program Files (x86)\Microchip\xc8\v1.45\include\pic16f887.h"
OSCTUNE equ 090h ;# 
# 1979 "C:\Program Files (x86)\Microchip\xc8\v1.45\include\pic16f887.h"
SSPCON2 equ 091h ;# 
# 2041 "C:\Program Files (x86)\Microchip\xc8\v1.45\include\pic16f887.h"
PR2 equ 092h ;# 
# 2048 "C:\Program Files (x86)\Microchip\xc8\v1.45\include\pic16f887.h"
SSPADD equ 093h ;# 
# 2055 "C:\Program Files (x86)\Microchip\xc8\v1.45\include\pic16f887.h"
SSPMSK equ 093h ;# 
# 2060 "C:\Program Files (x86)\Microchip\xc8\v1.45\include\pic16f887.h"
MSK equ 093h ;# 
# 2177 "C:\Program Files (x86)\Microchip\xc8\v1.45\include\pic16f887.h"
SSPSTAT equ 094h ;# 
# 2346 "C:\Program Files (x86)\Microchip\xc8\v1.45\include\pic16f887.h"
WPUB equ 095h ;# 
# 2416 "C:\Program Files (x86)\Microchip\xc8\v1.45\include\pic16f887.h"
IOCB equ 096h ;# 
# 2486 "C:\Program Files (x86)\Microchip\xc8\v1.45\include\pic16f887.h"
VRCON equ 097h ;# 
# 2556 "C:\Program Files (x86)\Microchip\xc8\v1.45\include\pic16f887.h"
TXSTA equ 098h ;# 
# 2642 "C:\Program Files (x86)\Microchip\xc8\v1.45\include\pic16f887.h"
SPBRG equ 099h ;# 
# 2704 "C:\Program Files (x86)\Microchip\xc8\v1.45\include\pic16f887.h"
SPBRGH equ 09Ah ;# 
# 2774 "C:\Program Files (x86)\Microchip\xc8\v1.45\include\pic16f887.h"
PWM1CON equ 09Bh ;# 
# 2844 "C:\Program Files (x86)\Microchip\xc8\v1.45\include\pic16f887.h"
ECCPAS equ 09Ch ;# 
# 2926 "C:\Program Files (x86)\Microchip\xc8\v1.45\include\pic16f887.h"
PSTRCON equ 09Dh ;# 
# 2970 "C:\Program Files (x86)\Microchip\xc8\v1.45\include\pic16f887.h"
ADRESL equ 09Eh ;# 
# 2977 "C:\Program Files (x86)\Microchip\xc8\v1.45\include\pic16f887.h"
ADCON1 equ 09Fh ;# 
# 3011 "C:\Program Files (x86)\Microchip\xc8\v1.45\include\pic16f887.h"
WDTCON equ 0105h ;# 
# 3064 "C:\Program Files (x86)\Microchip\xc8\v1.45\include\pic16f887.h"
CM1CON0 equ 0107h ;# 
# 3129 "C:\Program Files (x86)\Microchip\xc8\v1.45\include\pic16f887.h"
CM2CON0 equ 0108h ;# 
# 3194 "C:\Program Files (x86)\Microchip\xc8\v1.45\include\pic16f887.h"
CM2CON1 equ 0109h ;# 
# 3245 "C:\Program Files (x86)\Microchip\xc8\v1.45\include\pic16f887.h"
EEDATA equ 010Ch ;# 
# 3250 "C:\Program Files (x86)\Microchip\xc8\v1.45\include\pic16f887.h"
EEDAT equ 010Ch ;# 
# 3257 "C:\Program Files (x86)\Microchip\xc8\v1.45\include\pic16f887.h"
EEADR equ 010Dh ;# 
# 3264 "C:\Program Files (x86)\Microchip\xc8\v1.45\include\pic16f887.h"
EEDATH equ 010Eh ;# 
# 3271 "C:\Program Files (x86)\Microchip\xc8\v1.45\include\pic16f887.h"
EEADRH equ 010Fh ;# 
# 3278 "C:\Program Files (x86)\Microchip\xc8\v1.45\include\pic16f887.h"
SRCON equ 0185h ;# 
# 3335 "C:\Program Files (x86)\Microchip\xc8\v1.45\include\pic16f887.h"
BAUDCTL equ 0187h ;# 
# 3387 "C:\Program Files (x86)\Microchip\xc8\v1.45\include\pic16f887.h"
ANSEL equ 0188h ;# 
# 3449 "C:\Program Files (x86)\Microchip\xc8\v1.45\include\pic16f887.h"
ANSELH equ 0189h ;# 
# 3499 "C:\Program Files (x86)\Microchip\xc8\v1.45\include\pic16f887.h"
EECON1 equ 018Ch ;# 
# 3544 "C:\Program Files (x86)\Microchip\xc8\v1.45\include\pic16f887.h"
EECON2 equ 018Dh ;# 
	FNROOT	_main
	FNCALL	_interrupcao,___lwdiv
	FNCALL	intlevel1,_interrupcao
	global	intlevel1
	FNROOT	intlevel1
	global	_freq
	global	_t_old
	global	_t_new
	global	_t_dif
	global	_CCP1CON
_CCP1CON	set	0x17
	global	_CCPR1L
_CCPR1L	set	0x15
	global	_CCPR1H
_CCPR1H	set	0x16
	global	_TMR1ON
_TMR1ON	set	0x80
	global	_TMR1CS
_TMR1CS	set	0x81
	global	_PEIE
_PEIE	set	0x5E
	global	_GIE
_GIE	set	0x5F
	global	_CCP1IF
_CCP1IF	set	0x62
	global	_TRISC
_TRISC	set	0x87
	global	_CCP1IE
_CCP1IE	set	0x462
	global	_TMR1IE
_TMR1IE	set	0x460
; #config settings
	file	"exer5.as"
	line	#
psect cinit,class=CODE,delta=2
global start_initialization
start_initialization:

global __initialization
__initialization:
psect	bssBANK0,class=BANK0,space=1,noexec
global __pbssBANK0
__pbssBANK0:
_freq:
       ds      2

_t_old:
       ds      2

_t_new:
       ds      2

_t_dif:
       ds      2

	file	"exer5.as"
	line	#
; Clear objects allocated to BANK0
psect cinit,class=CODE,delta=2,merge=1
	bcf	status, 5	;RP0=0, select bank0
	bcf	status, 6	;RP1=0, select bank0
	clrf	((__pbssBANK0)+0)&07Fh
	clrf	((__pbssBANK0)+1)&07Fh
	clrf	((__pbssBANK0)+2)&07Fh
	clrf	((__pbssBANK0)+3)&07Fh
	clrf	((__pbssBANK0)+4)&07Fh
	clrf	((__pbssBANK0)+5)&07Fh
	clrf	((__pbssBANK0)+6)&07Fh
	clrf	((__pbssBANK0)+7)&07Fh
psect cinit,class=CODE,delta=2,merge=1
global end_of_initialization,__end_of__initialization

;End of C runtime variable initialization code

end_of_initialization:
__end_of__initialization:
clrf status
ljmp _main	;jump to C main() function
psect	cstackCOMMON,class=COMMON,space=1,noexec
global __pcstackCOMMON
__pcstackCOMMON:
?_interrupcao:	; 1 bytes @ 0x0
?_main:	; 1 bytes @ 0x0
	global	?___lwdiv
?___lwdiv:	; 2 bytes @ 0x0
	global	___lwdiv@divisor
___lwdiv@divisor:	; 2 bytes @ 0x0
	ds	2
	global	___lwdiv@dividend
___lwdiv@dividend:	; 2 bytes @ 0x2
	ds	2
??___lwdiv:	; 1 bytes @ 0x4
	ds	1
	global	___lwdiv@quotient
___lwdiv@quotient:	; 2 bytes @ 0x5
	ds	2
	global	___lwdiv@counter
___lwdiv@counter:	; 1 bytes @ 0x7
	ds	1
??_interrupcao:	; 1 bytes @ 0x8
	ds	6
psect	cstackBANK0,class=BANK0,space=1,noexec
global __pcstackBANK0
__pcstackBANK0:
??_main:	; 1 bytes @ 0x0
;!
;!Data Sizes:
;!    Strings     0
;!    Constant    0
;!    Data        0
;!    BSS         8
;!    Persistent  0
;!    Stack       0
;!
;!Auto Spaces:
;!    Space          Size  Autos    Used
;!    COMMON           14     14      14
;!    BANK0            80      0       8
;!    BANK1            80      0       0
;!    BANK3            96      0       0
;!    BANK2            96      0       0

;!
;!Pointer List with Targets:
;!
;!    None.


;!
;!Critical Paths under _main in COMMON
;!
;!    None.
;!
;!Critical Paths under _interrupcao in COMMON
;!
;!    _interrupcao->___lwdiv
;!
;!Critical Paths under _main in BANK0
;!
;!    None.
;!
;!Critical Paths under _interrupcao in BANK0
;!
;!    None.
;!
;!Critical Paths under _main in BANK1
;!
;!    None.
;!
;!Critical Paths under _interrupcao in BANK1
;!
;!    None.
;!
;!Critical Paths under _main in BANK3
;!
;!    None.
;!
;!Critical Paths under _interrupcao in BANK3
;!
;!    None.
;!
;!Critical Paths under _main in BANK2
;!
;!    None.
;!
;!Critical Paths under _interrupcao in BANK2
;!
;!    None.

;;
;;Main: autosize = 0, tempsize = 0, incstack = 0, save=0
;;

;!
;!Call Graph Tables:
;!
;! ---------------------------------------------------------------------------------
;! (Depth) Function   	        Calls       Base Space   Used Autos Params    Refs
;! ---------------------------------------------------------------------------------
;! (0) _main                                                 0     0      0       0
;! ---------------------------------------------------------------------------------
;! Estimated maximum stack depth 0
;! ---------------------------------------------------------------------------------
;! (Depth) Function   	        Calls       Base Space   Used Autos Params    Refs
;! ---------------------------------------------------------------------------------
;! (1) _interrupcao                                          6     6      0     268
;!                                              8 COMMON     6     6      0
;!                            ___lwdiv
;! ---------------------------------------------------------------------------------
;! (2) ___lwdiv                                              8     4      4     268
;!                                              0 COMMON     8     4      4
;! ---------------------------------------------------------------------------------
;! Estimated maximum stack depth 2
;! ---------------------------------------------------------------------------------
;!
;! Call Graph Graphs:
;!
;! _main (ROOT)
;!
;! _interrupcao (ROOT)
;!   ___lwdiv
;!

;! Address spaces:

;!Name               Size   Autos  Total    Cost      Usage
;!BITCOMMON            E      0       0       0        0.0%
;!EEDATA             100      0       0       0        0.0%
;!NULL                 0      0       0       0        0.0%
;!CODE                 0      0       0       0        0.0%
;!COMMON               E      E       E       1      100.0%
;!BITSFR0              0      0       0       1        0.0%
;!SFR0                 0      0       0       1        0.0%
;!BITSFR1              0      0       0       2        0.0%
;!SFR1                 0      0       0       2        0.0%
;!STACK                0      0       0       2        0.0%
;!ABS                  0      0      16       3        0.0%
;!BITBANK0            50      0       0       4        0.0%
;!BITSFR3              0      0       0       4        0.0%
;!SFR3                 0      0       0       4        0.0%
;!BANK0               50      0       8       5       10.0%
;!BITSFR2              0      0       0       5        0.0%
;!SFR2                 0      0       0       5        0.0%
;!BITBANK1            50      0       0       6        0.0%
;!BANK1               50      0       0       7        0.0%
;!BITBANK3            60      0       0       8        0.0%
;!BANK3               60      0       0       9        0.0%
;!BITBANK2            60      0       0      10        0.0%
;!BANK2               60      0       0      11        0.0%
;!DATA                 0      0      16      12        0.0%

	global	_main

;; *************** function _main *****************
;; Defined at:
;;		line 24 in file "C:\Users\Brenn\OneDrive\햞ea de Trabalho\provaMicro\Code\Micro\microcontroladores\exercicio5\exe5.c"
;; Parameters:    Size  Location     Type
;;		None
;; Auto vars:     Size  Location     Type
;;		None
;; Return value:  Size  Location     Type
;;                  1    wreg      void 
;; Registers used:
;;		wreg
;; Tracked objects:
;;		On entry : B00/0
;;		On exit  : 0/0
;;		Unchanged: 0/0
;; Data sizes:     COMMON   BANK0   BANK1   BANK3   BANK2
;;      Params:         0       0       0       0       0
;;      Locals:         0       0       0       0       0
;;      Temps:          0       0       0       0       0
;;      Totals:         0       0       0       0       0
;;Total ram usage:        0 bytes
;; Hardware stack levels required when called:    2
;; This function calls:
;;		Nothing
;; This function is called by:
;;		Startup code after reset
;; This function uses a non-reentrant model
;;
psect	maintext,global,class=CODE,delta=2,split=1,group=0
	file	"C:\Users\Brenn\OneDrive\햞ea de Trabalho\provaMicro\Code\Micro\microcontroladores\exercicio5\exe5.c"
	line	24
global __pmaintext
__pmaintext:	;psect for function _main
psect	maintext
	file	"C:\Users\Brenn\OneDrive\햞ea de Trabalho\provaMicro\Code\Micro\microcontroladores\exercicio5\exe5.c"
	line	24
	global	__size_of_main
	__size_of_main	equ	__end_of_main-_main
	
_main:	
;incstack = 0
	opt	stack 6
; Regs used in _main: [wreg]
	line	28
	
l590:	
;exe5.c: 28: GIE = 1;
	bsf	(95/8),(95)&7	;volatile
	line	29
;exe5.c: 29: PEIE = 1;
	bsf	(94/8),(94)&7	;volatile
	line	30
;exe5.c: 30: TMR1IE = 0;
	bsf	status, 5	;RP0=1, select bank1
	bcf	status, 6	;RP1=0, select bank1
	bcf	(1120/8)^080h,(1120)&7	;volatile
	line	31
;exe5.c: 31: CCP1IE = 1 ;
	bsf	(1122/8)^080h,(1122)&7	;volatile
	line	33
	
l592:	
;exe5.c: 33: TRISC = 0b00000100;
	movlw	low(04h)
	movwf	(135)^080h	;volatile
	line	37
	
l594:	
;exe5.c: 37: TMR1CS = 0;
	bcf	status, 5	;RP0=0, select bank0
	bcf	status, 6	;RP1=0, select bank0
	bcf	(129/8),(129)&7	;volatile
	line	38
	
l596:	
;exe5.c: 38: TMR1ON = 1;
	bsf	(128/8),(128)&7	;volatile
	line	42
;exe5.c: 42: CCP1CON = 0b00000101;
	movlw	low(05h)
	movwf	(23)	;volatile
	line	45
	
l598:	
;exe5.c: 45: CCP1IF = 1;
	bsf	(98/8),(98)&7	;volatile
	line	47
;exe5.c: 47: while(1){};
	
l41:	
	
l42:	
	goto	l41
	
l43:	
	line	48
	
l44:	
	global	start
	ljmp	start
	opt stack 0
GLOBAL	__end_of_main
	__end_of_main:
	signat	_main,89
	global	_interrupcao

;; *************** function _interrupcao *****************
;; Defined at:
;;		line 10 in file "C:\Users\Brenn\OneDrive\햞ea de Trabalho\provaMicro\Code\Micro\microcontroladores\exercicio5\exe5.c"
;; Parameters:    Size  Location     Type
;;		None
;; Auto vars:     Size  Location     Type
;;		None
;; Return value:  Size  Location     Type
;;                  1    wreg      void 
;; Registers used:
;;		wreg, status,2, status,0, pclath, cstack
;; Tracked objects:
;;		On entry : 0/0
;;		On exit  : 0/0
;;		Unchanged: 0/0
;; Data sizes:     COMMON   BANK0   BANK1   BANK3   BANK2
;;      Params:         0       0       0       0       0
;;      Locals:         0       0       0       0       0
;;      Temps:          6       0       0       0       0
;;      Totals:         6       0       0       0       0
;;Total ram usage:        6 bytes
;; Hardware stack levels used:    1
;; Hardware stack levels required when called:    1
;; This function calls:
;;		___lwdiv
;; This function is called by:
;;		Interrupt level 1
;; This function uses a non-reentrant model
;;
psect	text1,local,class=CODE,delta=2,merge=1,group=0
	line	10
global __ptext1
__ptext1:	;psect for function _interrupcao
psect	text1
	file	"C:\Users\Brenn\OneDrive\햞ea de Trabalho\provaMicro\Code\Micro\microcontroladores\exercicio5\exe5.c"
	line	10
	global	__size_of_interrupcao
	__size_of_interrupcao	equ	__end_of_interrupcao-_interrupcao
	
_interrupcao:	
;incstack = 0
	opt	stack 6
; Regs used in _interrupcao: [wreg+status,2+status,0+pclath+cstack]
psect	intentry,class=CODE,delta=2
global __pintentry
__pintentry:
global interrupt_function
interrupt_function:
	global saved_w
	saved_w	set	btemp+0
	movwf	saved_w
	swapf	status,w
	movwf	(??_interrupcao+2)
	movf	fsr0,w
	movwf	(??_interrupcao+3)
	movf	pclath,w
	movwf	(??_interrupcao+4)
	bcf	status, 5	;RP0=0, select bank0
	bcf	status, 6	;RP1=0, select bank0
	movf	btemp+1,w
	movwf	(??_interrupcao+5)
	ljmp	_interrupcao
psect	text1
	line	11
	
i1l578:	
;exe5.c: 11: if(CCP1IF == 1)
	btfss	(98/8),(98)&7	;volatile
	goto	u16_21
	goto	u16_20
u16_21:
	goto	i1l36
u16_20:
	line	14
	
i1l580:	
;exe5.c: 13: {
;exe5.c: 14: CCP1IF = 0;
	bcf	(98/8),(98)&7	;volatile
	line	15
	
i1l582:	
;exe5.c: 15: t_new = (CCPR1H << 8) + CCPR1L;
	movf	(22),w	;volatile
	movwf	(_t_new+1)
	movf	(21),w	;volatile
	movwf	(_t_new)
	line	16
	
i1l584:	
;exe5.c: 16: t_dif = t_new - t_old;
	comf	(_t_old),w
	movwf	(??_interrupcao+0)+0
	comf	(_t_old+1),w
	movwf	((??_interrupcao+0)+0+1)
	incf	(??_interrupcao+0)+0,f
	skipnz
	incf	((??_interrupcao+0)+0+1),f
	movf	(_t_new),w
	addwf	0+(??_interrupcao+0)+0,w
	movwf	(_t_dif)
	movf	(_t_new+1),w
	skipnc
	incf	(_t_new+1),w
	addwf	1+(??_interrupcao+0)+0,w
	movwf	1+(_t_dif)
	line	17
	
i1l586:	
;exe5.c: 17: t_old = t_new;
	movf	(_t_new+1),w
	movwf	(_t_old+1)
	movf	(_t_new),w
	movwf	(_t_old)
	line	19
	
i1l588:	
;exe5.c: 19: freq = (1/t_dif);
	movf	(_t_dif+1),w
	movwf	(___lwdiv@divisor+1)
	movf	(_t_dif),w
	movwf	(___lwdiv@divisor)
	movlw	01h
	movwf	(___lwdiv@dividend)
	movlw	0
	movwf	((___lwdiv@dividend))+1
	fcall	___lwdiv
	movf	(1+(?___lwdiv)),w
	bcf	status, 5	;RP0=0, select bank0
	bcf	status, 6	;RP1=0, select bank0
	movwf	(_freq+1)
	movf	(0+(?___lwdiv)),w
	movwf	(_freq)
	goto	i1l36
	line	21
	
i1l35:	
	line	22
	
i1l36:	
	movf	(??_interrupcao+5),w
	movwf	btemp+1
	movf	(??_interrupcao+4),w
	movwf	pclath
	movf	(??_interrupcao+3),w
	movwf	fsr0
	swapf	(??_interrupcao+2)^0FFFFFF80h,w
	movwf	status
	swapf	saved_w,f
	swapf	saved_w,w
	retfie
	opt stack 0
GLOBAL	__end_of_interrupcao
	__end_of_interrupcao:
	signat	_interrupcao,89
	global	___lwdiv

;; *************** function ___lwdiv *****************
;; Defined at:
;;		line 6 in file "C:\Program Files (x86)\Microchip\xc8\v1.45\sources\common\lwdiv.c"
;; Parameters:    Size  Location     Type
;;  divisor         2    0[COMMON] unsigned int 
;;  dividend        2    2[COMMON] unsigned int 
;; Auto vars:     Size  Location     Type
;;  quotient        2    5[COMMON] unsigned int 
;;  counter         1    7[COMMON] unsigned char 
;; Return value:  Size  Location     Type
;;                  2    0[COMMON] unsigned int 
;; Registers used:
;;		wreg, status,2, status,0
;; Tracked objects:
;;		On entry : 0/0
;;		On exit  : 0/0
;;		Unchanged: 0/0
;; Data sizes:     COMMON   BANK0   BANK1   BANK3   BANK2
;;      Params:         4       0       0       0       0
;;      Locals:         3       0       0       0       0
;;      Temps:          1       0       0       0       0
;;      Totals:         8       0       0       0       0
;;Total ram usage:        8 bytes
;; Hardware stack levels used:    1
;; This function calls:
;;		Nothing
;; This function is called by:
;;		_interrupcao
;; This function uses a non-reentrant model
;;
psect	text2,local,class=CODE,delta=2,merge=1,group=2
	file	"C:\Program Files (x86)\Microchip\xc8\v1.45\sources\common\lwdiv.c"
	line	6
global __ptext2
__ptext2:	;psect for function ___lwdiv
psect	text2
	file	"C:\Program Files (x86)\Microchip\xc8\v1.45\sources\common\lwdiv.c"
	line	6
	global	__size_of___lwdiv
	__size_of___lwdiv	equ	__end_of___lwdiv-___lwdiv
	
___lwdiv:	
;incstack = 0
	opt	stack 6
; Regs used in ___lwdiv: [wreg+status,2+status,0]
	line	14
	
i1l552:	
	clrf	(___lwdiv@quotient)
	clrf	(___lwdiv@quotient+1)
	line	15
	
i1l554:	
	movf	((___lwdiv@divisor)),w
iorwf	((___lwdiv@divisor+1)),w
	btfsc	status,2
	goto	u9_21
	goto	u9_20
u9_21:
	goto	i1l574
u9_20:
	line	16
	
i1l556:	
	clrf	(___lwdiv@counter)
	incf	(___lwdiv@counter),f
	line	17
	goto	i1l562
	
i1l462:	
	line	18
	
i1l558:	
	movlw	01h
	
u10_25:
	clrc
	rlf	(___lwdiv@divisor),f
	rlf	(___lwdiv@divisor+1),f
	addlw	-1
	skipz
	goto	u10_25
	line	19
	
i1l560:	
	movlw	low(01h)
	movwf	(??___lwdiv+0)+0
	movf	(??___lwdiv+0)+0,w
	addwf	(___lwdiv@counter),f
	goto	i1l562
	line	20
	
i1l461:	
	line	17
	
i1l562:	
	btfss	(___lwdiv@divisor+1),(15)&7
	goto	u11_21
	goto	u11_20
u11_21:
	goto	i1l558
u11_20:
	goto	i1l564
	
i1l463:	
	goto	i1l564
	line	21
	
i1l464:	
	line	22
	
i1l564:	
	movlw	01h
	
u12_25:
	clrc
	rlf	(___lwdiv@quotient),f
	rlf	(___lwdiv@quotient+1),f
	addlw	-1
	skipz
	goto	u12_25
	line	23
	movf	(___lwdiv@divisor+1),w
	subwf	(___lwdiv@dividend+1),w
	skipz
	goto	u13_25
	movf	(___lwdiv@divisor),w
	subwf	(___lwdiv@dividend),w
u13_25:
	skipc
	goto	u13_21
	goto	u13_20
u13_21:
	goto	i1l570
u13_20:
	line	24
	
i1l566:	
	movf	(___lwdiv@divisor),w
	subwf	(___lwdiv@dividend),f
	movf	(___lwdiv@divisor+1),w
	skipc
	decf	(___lwdiv@dividend+1),f
	subwf	(___lwdiv@dividend+1),f
	line	25
	
i1l568:	
	bsf	(___lwdiv@quotient)+(0/8),(0)&7
	goto	i1l570
	line	26
	
i1l465:	
	line	27
	
i1l570:	
	movlw	01h
	
u14_25:
	clrc
	rrf	(___lwdiv@divisor+1),f
	rrf	(___lwdiv@divisor),f
	addlw	-1
	skipz
	goto	u14_25
	line	28
	
i1l572:	
	movlw	01h
	subwf	(___lwdiv@counter),f
	btfss	status,2
	goto	u15_21
	goto	u15_20
u15_21:
	goto	i1l564
u15_20:
	goto	i1l574
	
i1l466:	
	goto	i1l574
	line	29
	
i1l460:	
	line	30
	
i1l574:	
	movf	(___lwdiv@quotient+1),w
	movwf	(?___lwdiv+1)
	movf	(___lwdiv@quotient),w
	movwf	(?___lwdiv)
	goto	i1l467
	
i1l576:	
	line	31
	
i1l467:	
	return
	opt stack 0
GLOBAL	__end_of___lwdiv
	__end_of___lwdiv:
	signat	___lwdiv,8314
global	___latbits
___latbits	equ	2
	global	btemp
	btemp set 07Eh

	DABS	1,126,2	;btemp
	global	wtemp0
	wtemp0 set btemp+0
	end
