opt subtitle "Microchip Technology Omniscient Code Generator v1.45 (Free mode) build 201711160504"

opt pagewidth 120

	opt lm

	processor	16F887
opt include "C:\Program Files (x86)\Microchip\xc8\v1.45\include\16f887.cgen.inc"
clrc	macro
	bcf	3,0
	endm
clrz	macro
	bcf	3,2
	endm
setc	macro
	bsf	3,0
	endm
setz	macro
	bsf	3,2
	endm
skipc	macro
	btfss	3,0
	endm
skipz	macro
	btfss	3,2
	endm
skipnc	macro
	btfsc	3,0
	endm
skipnz	macro
	btfsc	3,2
	endm
# 52 "C:\Program Files (x86)\Microchip\xc8\v1.45\include\pic16f887.h"
INDF equ 00h ;# 
# 59 "C:\Program Files (x86)\Microchip\xc8\v1.45\include\pic16f887.h"
TMR0 equ 01h ;# 
# 66 "C:\Program Files (x86)\Microchip\xc8\v1.45\include\pic16f887.h"
PCL equ 02h ;# 
# 73 "C:\Program Files (x86)\Microchip\xc8\v1.45\include\pic16f887.h"
STATUS equ 03h ;# 
# 159 "C:\Program Files (x86)\Microchip\xc8\v1.45\include\pic16f887.h"
FSR equ 04h ;# 
# 166 "C:\Program Files (x86)\Microchip\xc8\v1.45\include\pic16f887.h"
PORTA equ 05h ;# 
# 228 "C:\Program Files (x86)\Microchip\xc8\v1.45\include\pic16f887.h"
PORTB equ 06h ;# 
# 290 "C:\Program Files (x86)\Microchip\xc8\v1.45\include\pic16f887.h"
PORTC equ 07h ;# 
# 352 "C:\Program Files (x86)\Microchip\xc8\v1.45\include\pic16f887.h"
PORTD equ 08h ;# 
# 414 "C:\Program Files (x86)\Microchip\xc8\v1.45\include\pic16f887.h"
PORTE equ 09h ;# 
# 452 "C:\Program Files (x86)\Microchip\xc8\v1.45\include\pic16f887.h"
PCLATH equ 0Ah ;# 
# 459 "C:\Program Files (x86)\Microchip\xc8\v1.45\include\pic16f887.h"
INTCON equ 0Bh ;# 
# 537 "C:\Program Files (x86)\Microchip\xc8\v1.45\include\pic16f887.h"
PIR1 equ 0Ch ;# 
# 593 "C:\Program Files (x86)\Microchip\xc8\v1.45\include\pic16f887.h"
PIR2 equ 0Dh ;# 
# 650 "C:\Program Files (x86)\Microchip\xc8\v1.45\include\pic16f887.h"
TMR1 equ 0Eh ;# 
# 657 "C:\Program Files (x86)\Microchip\xc8\v1.45\include\pic16f887.h"
TMR1L equ 0Eh ;# 
# 664 "C:\Program Files (x86)\Microchip\xc8\v1.45\include\pic16f887.h"
TMR1H equ 0Fh ;# 
# 671 "C:\Program Files (x86)\Microchip\xc8\v1.45\include\pic16f887.h"
T1CON equ 010h ;# 
# 765 "C:\Program Files (x86)\Microchip\xc8\v1.45\include\pic16f887.h"
TMR2 equ 011h ;# 
# 772 "C:\Program Files (x86)\Microchip\xc8\v1.45\include\pic16f887.h"
T2CON equ 012h ;# 
# 843 "C:\Program Files (x86)\Microchip\xc8\v1.45\include\pic16f887.h"
SSPBUF equ 013h ;# 
# 850 "C:\Program Files (x86)\Microchip\xc8\v1.45\include\pic16f887.h"
SSPCON equ 014h ;# 
# 920 "C:\Program Files (x86)\Microchip\xc8\v1.45\include\pic16f887.h"
CCPR1 equ 015h ;# 
# 927 "C:\Program Files (x86)\Microchip\xc8\v1.45\include\pic16f887.h"
CCPR1L equ 015h ;# 
# 934 "C:\Program Files (x86)\Microchip\xc8\v1.45\include\pic16f887.h"
CCPR1H equ 016h ;# 
# 941 "C:\Program Files (x86)\Microchip\xc8\v1.45\include\pic16f887.h"
CCP1CON equ 017h ;# 
# 1038 "C:\Program Files (x86)\Microchip\xc8\v1.45\include\pic16f887.h"
RCSTA equ 018h ;# 
# 1133 "C:\Program Files (x86)\Microchip\xc8\v1.45\include\pic16f887.h"
TXREG equ 019h ;# 
# 1140 "C:\Program Files (x86)\Microchip\xc8\v1.45\include\pic16f887.h"
RCREG equ 01Ah ;# 
# 1147 "C:\Program Files (x86)\Microchip\xc8\v1.45\include\pic16f887.h"
CCPR2 equ 01Bh ;# 
# 1154 "C:\Program Files (x86)\Microchip\xc8\v1.45\include\pic16f887.h"
CCPR2L equ 01Bh ;# 
# 1161 "C:\Program Files (x86)\Microchip\xc8\v1.45\include\pic16f887.h"
CCPR2H equ 01Ch ;# 
# 1168 "C:\Program Files (x86)\Microchip\xc8\v1.45\include\pic16f887.h"
CCP2CON equ 01Dh ;# 
# 1238 "C:\Program Files (x86)\Microchip\xc8\v1.45\include\pic16f887.h"
ADRESH equ 01Eh ;# 
# 1245 "C:\Program Files (x86)\Microchip\xc8\v1.45\include\pic16f887.h"
ADCON0 equ 01Fh ;# 
# 1346 "C:\Program Files (x86)\Microchip\xc8\v1.45\include\pic16f887.h"
OPTION_REG equ 081h ;# 
# 1416 "C:\Program Files (x86)\Microchip\xc8\v1.45\include\pic16f887.h"
TRISA equ 085h ;# 
# 1478 "C:\Program Files (x86)\Microchip\xc8\v1.45\include\pic16f887.h"
TRISB equ 086h ;# 
# 1540 "C:\Program Files (x86)\Microchip\xc8\v1.45\include\pic16f887.h"
TRISC equ 087h ;# 
# 1602 "C:\Program Files (x86)\Microchip\xc8\v1.45\include\pic16f887.h"
TRISD equ 088h ;# 
# 1664 "C:\Program Files (x86)\Microchip\xc8\v1.45\include\pic16f887.h"
TRISE equ 089h ;# 
# 1702 "C:\Program Files (x86)\Microchip\xc8\v1.45\include\pic16f887.h"
PIE1 equ 08Ch ;# 
# 1758 "C:\Program Files (x86)\Microchip\xc8\v1.45\include\pic16f887.h"
PIE2 equ 08Dh ;# 
# 1815 "C:\Program Files (x86)\Microchip\xc8\v1.45\include\pic16f887.h"
PCON equ 08Eh ;# 
# 1862 "C:\Program Files (x86)\Microchip\xc8\v1.45\include\pic16f887.h"
OSCCON equ 08Fh ;# 
# 1927 "C:\Program Files (x86)\Microchip\xc8\v1.45\include\pic16f887.h"
OSCTUNE equ 090h ;# 
# 1979 "C:\Program Files (x86)\Microchip\xc8\v1.45\include\pic16f887.h"
SSPCON2 equ 091h ;# 
# 2041 "C:\Program Files (x86)\Microchip\xc8\v1.45\include\pic16f887.h"
PR2 equ 092h ;# 
# 2048 "C:\Program Files (x86)\Microchip\xc8\v1.45\include\pic16f887.h"
SSPADD equ 093h ;# 
# 2055 "C:\Program Files (x86)\Microchip\xc8\v1.45\include\pic16f887.h"
SSPMSK equ 093h ;# 
# 2060 "C:\Program Files (x86)\Microchip\xc8\v1.45\include\pic16f887.h"
MSK equ 093h ;# 
# 2177 "C:\Program Files (x86)\Microchip\xc8\v1.45\include\pic16f887.h"
SSPSTAT equ 094h ;# 
# 2346 "C:\Program Files (x86)\Microchip\xc8\v1.45\include\pic16f887.h"
WPUB equ 095h ;# 
# 2416 "C:\Program Files (x86)\Microchip\xc8\v1.45\include\pic16f887.h"
IOCB equ 096h ;# 
# 2486 "C:\Program Files (x86)\Microchip\xc8\v1.45\include\pic16f887.h"
VRCON equ 097h ;# 
# 2556 "C:\Program Files (x86)\Microchip\xc8\v1.45\include\pic16f887.h"
TXSTA equ 098h ;# 
# 2642 "C:\Program Files (x86)\Microchip\xc8\v1.45\include\pic16f887.h"
SPBRG equ 099h ;# 
# 2704 "C:\Program Files (x86)\Microchip\xc8\v1.45\include\pic16f887.h"
SPBRGH equ 09Ah ;# 
# 2774 "C:\Program Files (x86)\Microchip\xc8\v1.45\include\pic16f887.h"
PWM1CON equ 09Bh ;# 
# 2844 "C:\Program Files (x86)\Microchip\xc8\v1.45\include\pic16f887.h"
ECCPAS equ 09Ch ;# 
# 2926 "C:\Program Files (x86)\Microchip\xc8\v1.45\include\pic16f887.h"
PSTRCON equ 09Dh ;# 
# 2970 "C:\Program Files (x86)\Microchip\xc8\v1.45\include\pic16f887.h"
ADRESL equ 09Eh ;# 
# 2977 "C:\Program Files (x86)\Microchip\xc8\v1.45\include\pic16f887.h"
ADCON1 equ 09Fh ;# 
# 3011 "C:\Program Files (x86)\Microchip\xc8\v1.45\include\pic16f887.h"
WDTCON equ 0105h ;# 
# 3064 "C:\Program Files (x86)\Microchip\xc8\v1.45\include\pic16f887.h"
CM1CON0 equ 0107h ;# 
# 3129 "C:\Program Files (x86)\Microchip\xc8\v1.45\include\pic16f887.h"
CM2CON0 equ 0108h ;# 
# 3194 "C:\Program Files (x86)\Microchip\xc8\v1.45\include\pic16f887.h"
CM2CON1 equ 0109h ;# 
# 3245 "C:\Program Files (x86)\Microchip\xc8\v1.45\include\pic16f887.h"
EEDATA equ 010Ch ;# 
# 3250 "C:\Program Files (x86)\Microchip\xc8\v1.45\include\pic16f887.h"
EEDAT equ 010Ch ;# 
# 3257 "C:\Program Files (x86)\Microchip\xc8\v1.45\include\pic16f887.h"
EEADR equ 010Dh ;# 
# 3264 "C:\Program Files (x86)\Microchip\xc8\v1.45\include\pic16f887.h"
EEDATH equ 010Eh ;# 
# 3271 "C:\Program Files (x86)\Microchip\xc8\v1.45\include\pic16f887.h"
EEADRH equ 010Fh ;# 
# 3278 "C:\Program Files (x86)\Microchip\xc8\v1.45\include\pic16f887.h"
SRCON equ 0185h ;# 
# 3335 "C:\Program Files (x86)\Microchip\xc8\v1.45\include\pic16f887.h"
BAUDCTL equ 0187h ;# 
# 3387 "C:\Program Files (x86)\Microchip\xc8\v1.45\include\pic16f887.h"
ANSEL equ 0188h ;# 
# 3449 "C:\Program Files (x86)\Microchip\xc8\v1.45\include\pic16f887.h"
ANSELH equ 0189h ;# 
# 3499 "C:\Program Files (x86)\Microchip\xc8\v1.45\include\pic16f887.h"
EECON1 equ 018Ch ;# 
# 3544 "C:\Program Files (x86)\Microchip\xc8\v1.45\include\pic16f887.h"
EECON2 equ 018Dh ;# 
	FNROOT	_main
	FNCALL	_interrompe,_amostrador
	FNCALL	_amostrador,___wmul
	FNCALL	intlevel1,_interrompe
	global	intlevel1
	FNROOT	intlevel1
	global	_valor
	global	_TMR0
_TMR0	set	0x1
	global	_ADRESH
_ADRESH	set	0x1E
	global	_ADCON0
_ADCON0	set	0x1F
	global	_T0IE
_T0IE	set	0x5D
	global	_GIE
_GIE	set	0x5F
	global	_T0IF
_T0IF	set	0x5A
	global	_ADCON1
_ADCON1	set	0x9F
	global	_TRISA
_TRISA	set	0x85
	global	_OPTION_REG
_OPTION_REG	set	0x81
	global	_ADRESL
_ADRESL	set	0x9E
	global	_ANSEL
_ANSEL	set	0x188
; #config settings
	file	"exer8.as"
	line	#
psect cinit,class=CODE,delta=2
global start_initialization
start_initialization:

global __initialization
__initialization:
psect	bssCOMMON,class=COMMON,space=1,noexec
global __pbssCOMMON
__pbssCOMMON:
_valor:
       ds      2

	file	"exer8.as"
	line	#
; Clear objects allocated to COMMON
psect cinit,class=CODE,delta=2,merge=1
	clrf	((__pbssCOMMON)+0)&07Fh
	clrf	((__pbssCOMMON)+1)&07Fh
psect cinit,class=CODE,delta=2,merge=1
global end_of_initialization,__end_of__initialization

;End of C runtime variable initialization code

end_of_initialization:
__end_of__initialization:
clrf status
ljmp _main	;jump to C main() function
psect	cstackCOMMON,class=COMMON,space=1,noexec
global __pcstackCOMMON
__pcstackCOMMON:
?_amostrador:	; 1 bytes @ 0x0
?_interrompe:	; 1 bytes @ 0x0
?_main:	; 1 bytes @ 0x0
	global	?___wmul
?___wmul:	; 2 bytes @ 0x0
	global	___wmul@multiplier
___wmul@multiplier:	; 2 bytes @ 0x0
	ds	2
	global	___wmul@multiplicand
___wmul@multiplicand:	; 2 bytes @ 0x2
	ds	2
??___wmul:	; 1 bytes @ 0x4
	global	___wmul@product
___wmul@product:	; 2 bytes @ 0x4
	ds	2
??_amostrador:	; 1 bytes @ 0x6
??_interrompe:	; 1 bytes @ 0x6
	ds	4
psect	cstackBANK0,class=BANK0,space=1,noexec
global __pcstackBANK0
__pcstackBANK0:
??_main:	; 1 bytes @ 0x0
	ds	2
;!
;!Data Sizes:
;!    Strings     0
;!    Constant    0
;!    Data        0
;!    BSS         2
;!    Persistent  0
;!    Stack       0
;!
;!Auto Spaces:
;!    Space          Size  Autos    Used
;!    COMMON           14     10      12
;!    BANK0            80      2       2
;!    BANK1            80      0       0
;!    BANK3            96      0       0
;!    BANK2            96      0       0

;!
;!Pointer List with Targets:
;!
;!    None.


;!
;!Critical Paths under _main in COMMON
;!
;!    None.
;!
;!Critical Paths under _interrompe in COMMON
;!
;!    _amostrador->___wmul
;!
;!Critical Paths under _main in BANK0
;!
;!    None.
;!
;!Critical Paths under _interrompe in BANK0
;!
;!    None.
;!
;!Critical Paths under _main in BANK1
;!
;!    None.
;!
;!Critical Paths under _interrompe in BANK1
;!
;!    None.
;!
;!Critical Paths under _main in BANK3
;!
;!    None.
;!
;!Critical Paths under _interrompe in BANK3
;!
;!    None.
;!
;!Critical Paths under _main in BANK2
;!
;!    None.
;!
;!Critical Paths under _interrompe in BANK2
;!
;!    None.

;;
;;Main: autosize = 0, tempsize = 2, incstack = 0, save=0
;;

;!
;!Call Graph Tables:
;!
;! ---------------------------------------------------------------------------------
;! (Depth) Function   	        Calls       Base Space   Used Autos Params    Refs
;! ---------------------------------------------------------------------------------
;! (0) _main                                                 2     2      0       0
;!                                              0 BANK0      2     2      0
;! ---------------------------------------------------------------------------------
;! Estimated maximum stack depth 0
;! ---------------------------------------------------------------------------------
;! (Depth) Function   	        Calls       Base Space   Used Autos Params    Refs
;! ---------------------------------------------------------------------------------
;! (1) _interrompe                                           4     4      0     198
;!                                              6 COMMON     4     4      0
;!                         _amostrador
;! ---------------------------------------------------------------------------------
;! (2) _amostrador                                           0     0      0     198
;!                             ___wmul
;! ---------------------------------------------------------------------------------
;! (3) ___wmul                                               6     2      4     198
;!                                              0 COMMON     6     2      4
;! ---------------------------------------------------------------------------------
;! Estimated maximum stack depth 3
;! ---------------------------------------------------------------------------------
;!
;! Call Graph Graphs:
;!
;! _main (ROOT)
;!
;! _interrompe (ROOT)
;!   _amostrador
;!     ___wmul
;!

;! Address spaces:

;!Name               Size   Autos  Total    Cost      Usage
;!BITCOMMON            E      0       0       0        0.0%
;!EEDATA             100      0       0       0        0.0%
;!NULL                 0      0       0       0        0.0%
;!CODE                 0      0       0       0        0.0%
;!COMMON               E      A       C       1       85.7%
;!BITSFR0              0      0       0       1        0.0%
;!SFR0                 0      0       0       1        0.0%
;!BITSFR1              0      0       0       2        0.0%
;!SFR1                 0      0       0       2        0.0%
;!STACK                0      0       0       2        0.0%
;!ABS                  0      0       E       3        0.0%
;!BITBANK0            50      0       0       4        0.0%
;!BITSFR3              0      0       0       4        0.0%
;!SFR3                 0      0       0       4        0.0%
;!BANK0               50      2       2       5        2.5%
;!BITSFR2              0      0       0       5        0.0%
;!SFR2                 0      0       0       5        0.0%
;!BITBANK1            50      0       0       6        0.0%
;!BANK1               50      0       0       7        0.0%
;!BITBANK3            60      0       0       8        0.0%
;!BANK3               60      0       0       9        0.0%
;!BITBANK2            60      0       0      10        0.0%
;!BANK2               60      0       0      11        0.0%
;!DATA                 0      0       E      12        0.0%

	global	_main

;; *************** function _main *****************
;; Defined at:
;;		line 31 in file "C:\Users\Brenn\OneDrive\햞ea de Trabalho\provaMicro\Code\Micro\microcontroladores\exercicio8\exe8.c"
;; Parameters:    Size  Location     Type
;;		None
;; Auto vars:     Size  Location     Type
;;		None
;; Return value:  Size  Location     Type
;;                  1    wreg      void 
;; Registers used:
;;		wreg, status,2, status,0
;; Tracked objects:
;;		On entry : B00/0
;;		On exit  : 0/0
;;		Unchanged: 0/0
;; Data sizes:     COMMON   BANK0   BANK1   BANK3   BANK2
;;      Params:         0       0       0       0       0
;;      Locals:         0       0       0       0       0
;;      Temps:          0       2       0       0       0
;;      Totals:         0       2       0       0       0
;;Total ram usage:        2 bytes
;; Hardware stack levels required when called:    3
;; This function calls:
;;		Nothing
;; This function is called by:
;;		Startup code after reset
;; This function uses a non-reentrant model
;;
psect	maintext,global,class=CODE,delta=2,split=1,group=0
	file	"C:\Users\Brenn\OneDrive\햞ea de Trabalho\provaMicro\Code\Micro\microcontroladores\exercicio8\exe8.c"
	line	31
global __pmaintext
__pmaintext:	;psect for function _main
psect	maintext
	file	"C:\Users\Brenn\OneDrive\햞ea de Trabalho\provaMicro\Code\Micro\microcontroladores\exercicio8\exe8.c"
	line	31
	global	__size_of_main
	__size_of_main	equ	__end_of_main-_main
	
_main:	
;incstack = 0
	opt	stack 5
; Regs used in _main: [wreg+status,2+status,0]
	line	33
	
l586:	
;exe8.c: 33: OPTION_REG=0b10000101;
	movlw	low(085h)
	bsf	status, 5	;RP0=1, select bank1
	bcf	status, 6	;RP1=0, select bank1
	movwf	(129)^080h	;volatile
	line	34
;exe8.c: 34: TMR0 = 99;
	movlw	low(063h)
	bcf	status, 5	;RP0=0, select bank0
	bcf	status, 6	;RP1=0, select bank0
	movwf	(1)	;volatile
	line	35
	
l588:	
;exe8.c: 35: GIE = 1;
	bsf	(95/8),(95)&7	;volatile
	line	36
	
l590:	
;exe8.c: 36: T0IE = 1;
	bsf	(93/8),(93)&7	;volatile
	line	39
	
l592:	
;exe8.c: 39: TRISA |= (1<<0);
	bsf	status, 5	;RP0=1, select bank1
	bcf	status, 6	;RP1=0, select bank1
	bsf	(133)^080h+(0/8),(0)&7	;volatile
	line	40
	
l594:	
;exe8.c: 40: ANSEL |= (1<<0);
	bsf	status, 5	;RP0=1, select bank3
	bsf	status, 6	;RP1=1, select bank3
	bsf	(392)^0180h+(0/8),(0)&7	;volatile
	line	42
	
l596:	
;exe8.c: 42: ADCON0 = 0x00;
	bcf	status, 5	;RP0=0, select bank0
	bcf	status, 6	;RP1=0, select bank0
	clrf	(31)	;volatile
	line	43
	
l598:	
;exe8.c: 43: ADCON0 |= 0b01000001;
	movlw	low(041h)
	movwf	(??_main+0)+0
	movf	(??_main+0)+0,w
	iorwf	(31),f	;volatile
	line	44
	
l600:	
;exe8.c: 44: ADCON1 = 0;
	bsf	status, 5	;RP0=1, select bank1
	bcf	status, 6	;RP1=0, select bank1
	clrf	(159)^080h	;volatile
	line	45
	
l602:	
;exe8.c: 45: ADCON1 |= (1<<7);
	bsf	(159)^080h+(7/8),(7)&7	;volatile
	line	47
	
l604:	
;exe8.c: 47: _delay((unsigned long)((5)*(4000000/4000.0)));
	opt asmopt_push
opt asmopt_off
movlw	7
	bcf	status, 5	;RP0=0, select bank0
	bcf	status, 6	;RP1=0, select bank0
movwf	((??_main+0)+0+1),f
	movlw	124
movwf	((??_main+0)+0),f
	u137:
decfsz	((??_main+0)+0),f
	goto	u137
	decfsz	((??_main+0)+0+1),f
	goto	u137
	nop
opt asmopt_pop

	line	48
;exe8.c: 48: while(1){
	
l43:	
	line	50
	
l44:	
	line	48
	goto	l43
	
l45:	
	line	54
	
l46:	
	global	start
	ljmp	start
	opt stack 0
GLOBAL	__end_of_main
	__end_of_main:
	signat	_main,89
	global	_interrompe

;; *************** function _interrompe *****************
;; Defined at:
;;		line 23 in file "C:\Users\Brenn\OneDrive\햞ea de Trabalho\provaMicro\Code\Micro\microcontroladores\exercicio8\exe8.c"
;; Parameters:    Size  Location     Type
;;		None
;; Auto vars:     Size  Location     Type
;;		None
;; Return value:  Size  Location     Type
;;                  1    wreg      void 
;; Registers used:
;;		wreg, status,2, status,0, pclath, cstack
;; Tracked objects:
;;		On entry : 0/0
;;		On exit  : 0/0
;;		Unchanged: 0/0
;; Data sizes:     COMMON   BANK0   BANK1   BANK3   BANK2
;;      Params:         0       0       0       0       0
;;      Locals:         0       0       0       0       0
;;      Temps:          4       0       0       0       0
;;      Totals:         4       0       0       0       0
;;Total ram usage:        4 bytes
;; Hardware stack levels used:    1
;; Hardware stack levels required when called:    2
;; This function calls:
;;		_amostrador
;; This function is called by:
;;		Interrupt level 1
;; This function uses a non-reentrant model
;;
psect	text1,local,class=CODE,delta=2,merge=1,group=0
	line	23
global __ptext1
__ptext1:	;psect for function _interrompe
psect	text1
	file	"C:\Users\Brenn\OneDrive\햞ea de Trabalho\provaMicro\Code\Micro\microcontroladores\exercicio8\exe8.c"
	line	23
	global	__size_of_interrompe
	__size_of_interrompe	equ	__end_of_interrompe-_interrompe
	
_interrompe:	
;incstack = 0
	opt	stack 5
; Regs used in _interrompe: [wreg+status,2+status,0+pclath+cstack]
psect	intentry,class=CODE,delta=2
global __pintentry
__pintentry:
global interrupt_function
interrupt_function:
	global saved_w
	saved_w	set	btemp+0
	movwf	saved_w
	swapf	status,w
	movwf	(??_interrompe+0)
	movf	fsr0,w
	movwf	(??_interrompe+1)
	movf	pclath,w
	movwf	(??_interrompe+2)
	bcf	status, 5	;RP0=0, select bank0
	bcf	status, 6	;RP1=0, select bank0
	movf	btemp+1,w
	movwf	(??_interrompe+3)
	ljmp	_interrompe
psect	text1
	line	24
	
i1l578:	
;exe8.c: 24: if(T0IF == 1){
	btfss	(90/8),(90)&7	;volatile
	goto	u12_21
	goto	u12_20
u12_21:
	goto	i1l38
u12_20:
	line	25
	
i1l580:	
;exe8.c: 25: TMR0 = 99;
	movlw	low(063h)
	movwf	(1)	;volatile
	line	26
	
i1l582:	
;exe8.c: 26: T0IF = 0;
	bcf	(90/8),(90)&7	;volatile
	line	27
	
i1l584:	
;exe8.c: 27: amostrador();
	fcall	_amostrador
	goto	i1l38
	line	28
	
i1l37:	
	line	29
	
i1l38:	
	movf	(??_interrompe+3),w
	bcf	status, 5	;RP0=0, select bank0
	bcf	status, 6	;RP1=0, select bank0
	movwf	btemp+1
	movf	(??_interrompe+2),w
	movwf	pclath
	movf	(??_interrompe+1),w
	movwf	fsr0
	swapf	(??_interrompe+0)^0FFFFFF80h,w
	movwf	status
	swapf	saved_w,f
	swapf	saved_w,w
	retfie
	opt stack 0
GLOBAL	__end_of_interrompe
	__end_of_interrompe:
	signat	_interrompe,89
	global	_amostrador

;; *************** function _amostrador *****************
;; Defined at:
;;		line 7 in file "C:\Users\Brenn\OneDrive\햞ea de Trabalho\provaMicro\Code\Micro\microcontroladores\exercicio8\exe8.c"
;; Parameters:    Size  Location     Type
;;		None
;; Auto vars:     Size  Location     Type
;;		None
;; Return value:  Size  Location     Type
;;                  1    wreg      void 
;; Registers used:
;;		wreg, status,2, status,0, pclath, cstack
;; Tracked objects:
;;		On entry : 0/0
;;		On exit  : 0/0
;;		Unchanged: 0/0
;; Data sizes:     COMMON   BANK0   BANK1   BANK3   BANK2
;;      Params:         0       0       0       0       0
;;      Locals:         0       0       0       0       0
;;      Temps:          0       0       0       0       0
;;      Totals:         0       0       0       0       0
;;Total ram usage:        0 bytes
;; Hardware stack levels used:    1
;; Hardware stack levels required when called:    1
;; This function calls:
;;		___wmul
;; This function is called by:
;;		_interrompe
;; This function uses a non-reentrant model
;;
psect	text2,local,class=CODE,delta=2,merge=1,group=0
	line	7
global __ptext2
__ptext2:	;psect for function _amostrador
psect	text2
	file	"C:\Users\Brenn\OneDrive\햞ea de Trabalho\provaMicro\Code\Micro\microcontroladores\exercicio8\exe8.c"
	line	7
	global	__size_of_amostrador
	__size_of_amostrador	equ	__end_of_amostrador-_amostrador
	
_amostrador:	
;incstack = 0
	opt	stack 5
; Regs used in _amostrador: [wreg+status,2+status,0+pclath+cstack]
	line	10
	
i1l570:	
;exe8.c: 10: ADCON0 |= (1<<1);
	bcf	status, 5	;RP0=0, select bank0
	bcf	status, 6	;RP1=0, select bank0
	bsf	(31)+(1/8),(1)&7	;volatile
	line	11
;exe8.c: 11: while(ADCON0 & (1<<1));
	goto	i1l29
	
i1l30:	
	
i1l29:	
	btfsc	(31),(1)&7	;volatile
	goto	u11_21
	goto	u11_20
u11_21:
	goto	i1l29
u11_20:
	goto	i1l572
	
i1l31:	
	line	13
	
i1l572:	
;exe8.c: 13: valor = (ADRESH<<8) + ADRESL;
	movf	(30),w	;volatile
	movwf	(_valor+1)
	bsf	status, 5	;RP0=1, select bank1
	bcf	status, 6	;RP1=0, select bank1
	movf	(158)^080h,w	;volatile
	movwf	(_valor)
	line	15
	
i1l574:	
;exe8.c: 15: valor = valor*10;
	movf	(_valor+1),w
	movwf	(___wmul@multiplier+1)
	movf	(_valor),w
	movwf	(___wmul@multiplier)
	movlw	0Ah
	movwf	(___wmul@multiplicand)
	movlw	0
	movwf	((___wmul@multiplicand))+1
	fcall	___wmul
	movf	(1+(?___wmul)),w
	movwf	(_valor+1)
	movf	(0+(?___wmul)),w
	movwf	(_valor)
	line	18
	
i1l576:	
;exe8.c: 18: _delay((unsigned long)((5)*(4000000/4000000.0)));
		opt asmopt_push
	opt asmopt_off
	nop2	;2 cycle nop
	nop2	;2 cycle nop
	nop
	opt asmopt_pop

	line	20
	
i1l32:	
	return
	opt stack 0
GLOBAL	__end_of_amostrador
	__end_of_amostrador:
	signat	_amostrador,89
	global	___wmul

;; *************** function ___wmul *****************
;; Defined at:
;;		line 15 in file "C:\Program Files (x86)\Microchip\xc8\v1.45\sources\common\Umul16.c"
;; Parameters:    Size  Location     Type
;;  multiplier      2    0[COMMON] unsigned int 
;;  multiplicand    2    2[COMMON] unsigned int 
;; Auto vars:     Size  Location     Type
;;  product         2    4[COMMON] unsigned int 
;; Return value:  Size  Location     Type
;;                  2    0[COMMON] unsigned int 
;; Registers used:
;;		wreg, status,2, status,0
;; Tracked objects:
;;		On entry : 0/0
;;		On exit  : 0/0
;;		Unchanged: 0/0
;; Data sizes:     COMMON   BANK0   BANK1   BANK3   BANK2
;;      Params:         4       0       0       0       0
;;      Locals:         2       0       0       0       0
;;      Temps:          0       0       0       0       0
;;      Totals:         6       0       0       0       0
;;Total ram usage:        6 bytes
;; Hardware stack levels used:    1
;; This function calls:
;;		Nothing
;; This function is called by:
;;		_amostrador
;; This function uses a non-reentrant model
;;
psect	text3,local,class=CODE,delta=2,merge=1,group=2
	file	"C:\Program Files (x86)\Microchip\xc8\v1.45\sources\common\Umul16.c"
	line	15
global __ptext3
__ptext3:	;psect for function ___wmul
psect	text3
	file	"C:\Program Files (x86)\Microchip\xc8\v1.45\sources\common\Umul16.c"
	line	15
	global	__size_of___wmul
	__size_of___wmul	equ	__end_of___wmul-___wmul
	
___wmul:	
;incstack = 0
	opt	stack 5
; Regs used in ___wmul: [wreg+status,2+status,0]
	line	43
	
i1l556:	
	clrf	(___wmul@product)
	clrf	(___wmul@product+1)
	goto	i1l558
	line	44
	
i1l129:	
	line	45
	
i1l558:	
	btfss	(___wmul@multiplier),(0)&7
	goto	u7_21
	goto	u7_20
u7_21:
	goto	i1l130
u7_20:
	line	46
	
i1l560:	
	movf	(___wmul@multiplicand),w
	addwf	(___wmul@product),f
	skipnc
	incf	(___wmul@product+1),f
	movf	(___wmul@multiplicand+1),w
	addwf	(___wmul@product+1),f
	
i1l130:	
	line	47
	movlw	01h
	
u8_25:
	clrc
	rlf	(___wmul@multiplicand),f
	rlf	(___wmul@multiplicand+1),f
	addlw	-1
	skipz
	goto	u8_25
	line	48
	
i1l562:	
	movlw	01h
	
u9_25:
	clrc
	rrf	(___wmul@multiplier+1),f
	rrf	(___wmul@multiplier),f
	addlw	-1
	skipz
	goto	u9_25
	line	49
	
i1l564:	
	movf	((___wmul@multiplier)),w
iorwf	((___wmul@multiplier+1)),w
	btfss	status,2
	goto	u10_21
	goto	u10_20
u10_21:
	goto	i1l558
u10_20:
	goto	i1l566
	
i1l131:	
	line	52
	
i1l566:	
	movf	(___wmul@product+1),w
	movwf	(?___wmul+1)
	movf	(___wmul@product),w
	movwf	(?___wmul)
	goto	i1l132
	
i1l568:	
	line	53
	
i1l132:	
	return
	opt stack 0
GLOBAL	__end_of___wmul
	__end_of___wmul:
	signat	___wmul,8314
global	___latbits
___latbits	equ	2
	global	btemp
	btemp set 07Eh

	DABS	1,126,2	;btemp
	global	wtemp0
	wtemp0 set btemp+0
	end
